; Function Attrs: null_pointer_is_valid sspstrong uwtable
define internal fastcc void @proto_mpeg_descriptor_dissect_teletext(ptr noundef %0, i32 noundef %1, i32 noundef range(i32 1, 256) %2, ptr noundef %3) unnamed_addr #1 {
  %5 = add i32 %2, %1
  %6 = icmp ult i32 %1, %5
  br i1 %6, label %.lr.ph, label %._crit_edge

.lr.ph:                                           ; preds = %4, %.lr.ph
  %.018 = phi i32 [ %17, %.lr.ph ], [ %1, %4 ]
  %7 = load i32, ptr @hf_mpeg_descr_teletext_lang_code, align 4
  %8 = tail call ptr @proto_tree_add_item(ptr noundef %3, i32 noundef %7, ptr noundef %0, i32 noundef %.018, i32 noundef 3, i32 noundef 0)
  %9 = add i32 %.018, 3
  %10 = load i32, ptr @hf_mpeg_descr_teletext_type, align 4
  %11 = tail call ptr @proto_tree_add_item(ptr noundef %3, i32 noundef %10, ptr noundef %0, i32 noundef %9, i32 noundef 1, i32 noundef 0)
  %12 = load i32, ptr @hf_mpeg_descr_teletext_magazine_number, align 4
  %13 = tail call ptr @proto_tree_add_item(ptr noundef %3, i32 noundef %12, ptr noundef %0, i32 noundef %9, i32 noundef 1, i32 noundef 0)
  %14 = add i32 %.018, 4
  %15 = load i32, ptr @hf_mpeg_descr_teletext_page_number, align 4
  %16 = tail call ptr @proto_tree_add_item(ptr noundef %3, i32 noundef %15, ptr noundef %0, i32 noundef %14, i32 noundef 1, i32 noundef 0)
  %17 = add i32 %.018, 5
  %18 = icmp ult i32 %17, %5
  br i1 %18, label %.lr.ph, label %._crit_edge, !llvm.loop !19

._crit_edge:                                      ; preds = %.lr.ph, %4
  ret void
}